target datalayout = "e-m:e-p270:32:32-p271:32:32-p272:64:64-i64:64-i128:128-f80:128-n8:16:32:64-S128"
target triple = "x86_64-pc-linux-gnu"

%class.QString = type { %struct.QArrayDataPointer }
%struct.QArrayDataPointer = type { ptr, ptr, i64 }
%class.FilterDialog = type { %class.GeometryStateDialog, ptr, ptr, i32, ptr }
%class.GeometryStateDialog = type { %class.QDialog, %class.QString, ptr }
%class.QDialog = type { %class.QWidget }
%class.QWidget = type { %class.QObject, %class.QPaintDevice.base, ptr }
%class.QObject = type { ptr, %class.QScopedPointer }
%class.QScopedPointer = type { ptr }
%class.QPaintDevice.base = type <{ ptr, i16 }>

@mainApp = external global ptr, align 8
@.str.12 = private unnamed_addr constant [1 x i8] zeroinitializer, align 1
@.str.13 = private unnamed_addr constant [24 x i8] c"ui/qt/filter_dialog.cpp\00", align 1
@.str.14 = private unnamed_addr constant [31 x i8] c"assertion \22not reached\22 failed\00", align 1
@__func__._ZN12FilterDialog26on_buttonBox_helpRequestedEv = private unnamed_addr constant [27 x i8] c"on_buttonBox_helpRequested\00", align 1

; Function Attrs: mustprogress null_pointer_is_valid sspstrong uwtable
define void @_ZN12FilterDialog26on_buttonBox_helpRequestedEv(ptr noundef align 8 dereferenceable_or_null(104) %0) #0 align 2 {
  %2 = alloca ptr, align 8
  store ptr %0, ptr %2, align 8
  %3 = load ptr, ptr %2, align 8
  %4 = getelementptr inbounds nuw %class.FilterDialog, ptr %3, i32 0, i32 3
  %5 = load i32, ptr %4, align 8
  switch i32 %5, label %12 [
    i32 0, label %6
    i32 1, label %8
    i32 2, label %10
  ]

6:                                                ; preds = %1
  %7 = load ptr, ptr @mainApp, align 8
  call void @_ZN15MainApplication15helpTopicActionE14topic_action_e(ptr noundef align 8 dereferenceable_or_null(216) %7, i32 noundef 203)
  br label %13

8:                                                ; preds = %1
  %9 = load ptr, ptr @mainApp, align 8
  call void @_ZN15MainApplication15helpTopicActionE14topic_action_e(ptr noundef align 8 dereferenceable_or_null(216) %9, i32 noundef 204)
  br label %13

10:                                               ; preds = %1
  %11 = load ptr, ptr @mainApp, align 8
  call void @_ZN15MainApplication15helpTopicActionE14topic_action_e(ptr noundef align 8 dereferenceable_or_null(216) %11, i32 noundef 206)
  br label %13

12:                                               ; preds = %1
  call void (ptr, i32, ptr, i64, ptr, ptr, ...) @ws_log_fatal_full(ptr noundef @.str.12, i32 noundef 7, ptr noundef @.str.13, i64 noundef 233, ptr noundef @__func__._ZN12FilterDialog26on_buttonBox_helpRequestedEv, ptr noundef @.str.14) #29
  unreachable

13:                                               ; preds = %10, %8, %6
  ret void
}