; Function Attrs: mustprogress null_pointer_is_valid sspstrong uwtable
define void @_ZN12FilterDialog26on_buttonBox_helpRequestedEv(ptr noundef readonly align 8 captures(none) dereferenceable_or_null(104) %0) local_unnamed_addr #0 align 2 {
  %2 = getelementptr inbounds nuw i8, ptr %0, i64 88
  %3 = load i32, ptr %2, align 8
  %4 = icmp ult i32 %3, 3
  br i1 %4, label %switch.lookup, label %5

5:                                                ; preds = %1
  tail call void (ptr, i32, ptr, i64, ptr, ptr, ...) @ws_log_fatal_full(ptr noundef nonnull @.str.12, i32 noundef 7, ptr noundef nonnull @.str.13, i64 noundef 233, ptr noundef nonnull @__func__._ZN12FilterDialog26on_buttonBox_helpRequestedEv, ptr noundef nonnull @.str.14) #23
  unreachable

switch.lookup:                                    ; preds = %1
  %6 = zext nneg i32 %3 to i64
  %switch.gep = getelementptr inbounds nuw [3 x i32], ptr @switch.table._ZN12FilterDialog26on_buttonBox_helpRequestedEv, i64 0, i64 %6
  %switch.load = load i32, ptr %switch.gep, align 4
  %7 = load ptr, ptr @mainApp, align 8
  tail call void @_ZN15MainApplication15helpTopicActionE14topic_action_e(ptr noundef align 8 dereferenceable_or_null(216) %7, i32 noundef %switch.load)
  ret void
}